target datalayout = "e-m:e-p270:32:32-p271:32:32-p272:64:64-i64:64-i128:128-f80:128-n8:16:32:64-S128"
target triple = "x86_64-pc-linux-gnu"

; Function Attrs: mustprogress nounwind uwtable
define internal noundef zeroext i1 @_ZN7glslangL42canSignedIntTypeRepresentAllUnsignedValuesENS_10TBasicTypeES0_(i32 noundef %0, i32 noundef %1) #0 {
  %3 = alloca i1, align 1
  %4 = alloca i32, align 4
  %5 = alloca i32, align 4
  store i32 %0, ptr %4, align 4
  store i32 %1, ptr %5, align 4
  %6 = load i32, ptr %4, align 4
  switch i32 %6, label %26 [
    i32 4, label %7
    i32 6, label %11
    i32 8, label %16
    i32 10, label %21
  ]

7:                                                ; preds = %2
  %8 = load i32, ptr %5, align 4
  switch i32 %8, label %10 [
    i32 5, label %9
    i32 7, label %9
    i32 9, label %9
    i32 11, label %9
  ]

9:                                                ; preds = %7, %7, %7, %7
  store i1 false, ptr %3, align 1
  br label %27

10:                                               ; preds = %7
  store i1 false, ptr %3, align 1
  br label %27

11:                                               ; preds = %2
  %12 = load i32, ptr %5, align 4
  switch i32 %12, label %15 [
    i32 5, label %13
    i32 7, label %14
    i32 9, label %14
    i32 11, label %14
  ]

13:                                               ; preds = %11
  store i1 true, ptr %3, align 1
  br label %27

14:                                               ; preds = %11, %11, %11
  store i1 false, ptr %3, align 1
  br label %27

15:                                               ; preds = %11
  store i1 false, ptr %3, align 1
  br label %27

16:                                               ; preds = %2
  %17 = load i32, ptr %5, align 4
  switch i32 %17, label %20 [
    i32 5, label %18
    i32 7, label %18
    i32 9, label %19
  ]

18:                                               ; preds = %16, %16
  store i1 true, ptr %3, align 1
  br label %27

19:                                               ; preds = %16
  store i1 false, ptr %3, align 1
  br label %27

20:                                               ; preds = %16
  store i1 false, ptr %3, align 1
  br label %27

21:                                               ; preds = %2
  %22 = load i32, ptr %5, align 4
  switch i32 %22, label %25 [
    i32 5, label %23
    i32 7, label %23
    i32 9, label %23
    i32 11, label %24
  ]

23:                                               ; preds = %21, %21, %21
  store i1 true, ptr %3, align 1
  br label %27

24:                                               ; preds = %21
  store i1 false, ptr %3, align 1
  br label %27

25:                                               ; preds = %21
  store i1 false, ptr %3, align 1
  br label %27

26:                                               ; preds = %2
  store i1 false, ptr %3, align 1
  br label %27

27:                                               ; preds = %26, %25, %24, %23, %20, %19, %18, %15, %14, %13, %10, %9
  %28 = load i1, ptr %3, align 1
  ret i1 %28
}