; Function Attrs: mustprogress nofree norecurse nosync nounwind willreturn memory(none) uwtable
define internal fastcc noundef zeroext i1 @_ZN7glslangL42canSignedIntTypeRepresentAllUnsignedValuesENS_10TBasicTypeES0_(i32 noundef %0, i32 noundef %1) unnamed_addr #2 {
  switch i32 %0, label %9 [
    i32 10, label %7
    i32 6, label %3
    i32 8, label %5
  ]

3:                                                ; preds = %2
  %4 = icmp ult i32 %1, 12
  br i1 %4, label %switch.lookup, label %9

5:                                                ; preds = %2
  %6 = icmp ult i32 %1, 10
  br i1 %6, label %switch.lookup5, label %9

7:                                                ; preds = %2
  %8 = icmp ult i32 %1, 12
  br i1 %8, label %switch.lookup10, label %9

switch.lookup:                                    ; preds = %3
  %switch.cast = trunc nuw i32 %1 to i12
  %switch.downshift = lshr i12 32, %switch.cast
  %switch.masked = trunc i12 %switch.downshift to i1
  br label %9

switch.lookup5:                                   ; preds = %5
  %switch.cast6 = trunc nuw i32 %1 to i10
  %switch.downshift8 = lshr i10 160, %switch.cast6
  %switch.masked9 = trunc i10 %switch.downshift8 to i1
  br label %9

switch.lookup10:                                  ; preds = %7
  %switch.cast11 = trunc nuw i32 %1 to i12
  %switch.downshift13 = lshr i12 672, %switch.cast11
  %switch.masked14 = trunc i12 %switch.downshift13 to i1
  br label %9

9:                                                ; preds = %7, %switch.lookup10, %5, %switch.lookup5, %3, %switch.lookup, %2
  %.0 = phi i1 [ false, %2 ], [ %switch.masked, %switch.lookup ], [ false, %3 ], [ %switch.masked9, %switch.lookup5 ], [ false, %5 ], [ %switch.masked14, %switch.lookup10 ], [ false, %7 ]
  ret i1 %.0
}